#include <math.h>
#include <stdio.h>
#include <stdlib.h>
#include <string.h>

int yes(int n)
{
    int m,i;
    m=(int)sqrt(n);
    for(i=3;i<=m;i+=2)
    {
       if(n%i==0)
       return 0;
    }
    return 1;
}
main()
{
      int m,n,i;
      scanf("%d",&n);
      for(i=3;i<=n/2;i+=2)
      {
                      if(yes(i)&&yes(n-i))
                      {
                               
                                printf("%d %d\n",i,n-i);
                      }
      }
      getchar();
      getchar();
}
